target datalayout = "e-m:e-p270:32:32-p271:32:32-p272:64:64-i64:64-i128:128-f80:128-n8:16:32:64-S128"
target triple = "x86_64-pc-linux-gnu"

%class.LogTagSet = type { ptr, i64, [5 x i32], [4 x i8], %class.LogOutputList, %class.LogDecorators, ptr }
%class.LogOutputList = type <{ [6 x ptr], i32, [4 x i8] }>
%class.LogDecorators = type { i32 }
%class.G1ConcurrentRefineThreadControl = type { ptr, %class.GrowableArrayCHeap }
%class.GrowableArrayCHeap = type { %class.GrowableArrayWithAllocator.7 }
%class.GrowableArrayWithAllocator.7 = type { %class.GrowableArrayView.8 }
%class.GrowableArrayView.8 = type { %class.GrowableArrayBase, ptr }
%class.GrowableArrayBase = type { i32, i32 }
%class.G1ConcurrentRefine = type { ptr, i32, i64, %class.TimeInstant, %class.TimeInstant, i8, [7 x i8], %class.G1ConcurrentRefineThreadsNeeded, %class.G1ConcurrentRefineThreadControl, ptr }
%class.TimeInstant = type { %class.CompositeCounterRepresentation }
%class.CompositeCounterRepresentation = type { %class.Representation }
%class.Representation = type { %class.PairRep }
%class.PairRep = type { i64, i64 }
%class.G1ConcurrentRefineThreadsNeeded = type <{ ptr, double, double, i64, i32, [4 x i8] }>
%"struct.Atomic::LoadImpl.14" = type { i8 }
%"struct.Atomic::StoreImpl" = type { i8 }
%"struct.Atomic::PlatformStore" = type { i8 }
%"struct.Atomic::PlatformLoad.15" = type { i8 }

@.str.10 = private unnamed_addr constant [76 x i8] c"Concurrent refinement: wanted %u, cards: %zu, predicted: %zu, time: %1.2fms\00", align 1
@_ZN16LogTagSetMappingILN6LogTag4typeE49ELS1_127ELS1_0ELS1_0ELS1_0ELS1_0EE7_tagsetE = linkonce_odr hidden global %class.LogTagSet zeroinitializer, comdat, align 8

; Function Attrs: mustprogress nounwind uwtable
define linkonce_odr hidden noundef zeroext i1 @_ZNK13LogOutputList8is_levelEN8LogLevel4typeE(ptr noundef nonnull align 8 dereferenceable(52) %0, i32 noundef %1) #1 comdat align 2 {
  %3 = alloca ptr, align 8
  %4 = alloca i32, align 4
  store ptr %0, ptr %3, align 8
  store i32 %1, ptr %4, align 4
  %5 = load ptr, ptr %3, align 8
  %6 = getelementptr inbounds %class.LogOutputList, ptr %5, i32 0, i32 0
  %7 = load i32, ptr %4, align 4
  %8 = zext i32 %7 to i64
  %9 = getelementptr inbounds [6 x ptr], ptr %6, i64 0, i64 %8
  %10 = load volatile ptr, ptr %9, align 8
  %11 = icmp ne ptr %10, null
  ret i1 %11
}

; Function Attrs: mustprogress nounwind uwtable
define linkonce_odr hidden void @_ZNK6Atomic13PlatformStoreILm4EEclIjEEvPVT_S3_(ptr noundef nonnull align 1 dereferenceable(1) %0, ptr noundef %1, i32 noundef %2) #1 comdat align 2 {
  %4 = alloca ptr, align 8
  %5 = alloca ptr, align 8
  %6 = alloca i32, align 4
  store ptr %0, ptr %4, align 8
  store ptr %1, ptr %5, align 8
  store i32 %2, ptr %6, align 4
  %7 = load i32, ptr %6, align 4
  %8 = load ptr, ptr %5, align 8
  store volatile i32 %7, ptr %8, align 4
  ret void
}

; Function Attrs: mustprogress nounwind uwtable
define linkonce_odr hidden noundef i32 @_ZNK6Atomic12PlatformLoadILm4EEclIjEET_PVKS3_(ptr noundef nonnull align 1 dereferenceable(1) %0, ptr noundef %1) #1 comdat align 2 {
  %3 = alloca ptr, align 8
  %4 = alloca ptr, align 8
  store ptr %0, ptr %3, align 8
  store ptr %1, ptr %4, align 8
  %5 = load ptr, ptr %4, align 8
  %6 = load volatile i32, ptr %5, align 4
  ret i32 %6
}

; Function Attrs: mustprogress nounwind uwtable
define linkonce_odr hidden noundef zeroext i1 @_ZNK9LogTagSet8is_levelEN8LogLevel4typeE(ptr noundef nonnull align 8 dereferenceable(112) %0, i32 noundef %1) #1 comdat align 2 {
  %3 = alloca ptr, align 8
  %4 = alloca i32, align 4
  store ptr %0, ptr %3, align 8
  store i32 %1, ptr %4, align 4
  %5 = load ptr, ptr %3, align 8
  %6 = getelementptr inbounds %class.LogTagSet, ptr %5, i32 0, i32 4
  %7 = load i32, ptr %4, align 4
  %8 = call noundef zeroext i1 @_ZNK13LogOutputList8is_levelEN8LogLevel4typeE(ptr noundef nonnull align 8 dereferenceable(52) %6, i32 noundef %7)
  ret i1 %8
}

; Function Attrs: mustprogress nounwind uwtable
define linkonce_odr hidden noundef nonnull align 8 dereferenceable(112) ptr @_ZN16LogTagSetMappingILN6LogTag4typeE49ELS1_127ELS1_0ELS1_0ELS1_0ELS1_0EE6tagsetEv() #1 comdat align 2 {
  ret ptr @_ZN16LogTagSetMappingILN6LogTag4typeE49ELS1_127ELS1_0ELS1_0ELS1_0ELS1_0EE7_tagsetE
}

; Function Attrs: mustprogress nounwind uwtable
define linkonce_odr hidden void @_ZNK6Atomic9StoreImplIjjNS_13PlatformStoreILm4EEEvEclEPVjj(ptr noundef nonnull align 1 dereferenceable(1) %0, ptr noundef %1, i32 noundef %2) #1 comdat align 2 {
  %4 = alloca ptr, align 8
  %5 = alloca ptr, align 8
  %6 = alloca i32, align 4
  %7 = alloca %"struct.Atomic::PlatformStore", align 1
  store ptr %0, ptr %4, align 8
  store ptr %1, ptr %5, align 8
  store i32 %2, ptr %6, align 4
  %8 = load ptr, ptr %5, align 8
  %9 = load i32, ptr %6, align 4
  call void @_ZNK6Atomic13PlatformStoreILm4EEclIjEEvPVT_S3_(ptr noundef nonnull align 1 dereferenceable(1) %7, ptr noundef %8, i32 noundef %9)
  ret void
}

; Function Attrs: mustprogress nounwind uwtable
define hidden noundef i64 @_ZNK18G1ConcurrentRefine24adjust_threads_period_msEv(ptr noundef nonnull align 8 dereferenceable(136) %0) #1 align 2 {
  %2 = alloca ptr, align 8
  store ptr %0, ptr %2, align 8
  ret i64 50
}

; Function Attrs: mustprogress nounwind uwtable
define linkonce_odr hidden noundef i32 @_ZNK17GrowableArrayBase8capacityEv(ptr noundef nonnull align 4 dereferenceable(8) %0) #1 comdat align 2 {
  %2 = alloca ptr, align 8
  store ptr %0, ptr %2, align 8
  %3 = load ptr, ptr %2, align 8
  %4 = getelementptr inbounds %class.GrowableArrayBase, ptr %3, i32 0, i32 1
  %5 = load i32, ptr %4, align 4
  ret i32 %5
}

; Function Attrs: mustprogress nounwind uwtable
define linkonce_odr hidden noundef i32 @_ZNK6Atomic8LoadImplIjNS_12PlatformLoadILm4EEEvEclEPVKj(ptr noundef nonnull align 1 dereferenceable(1) %0, ptr noundef %1) #1 comdat align 2 {
  %3 = alloca ptr, align 8
  %4 = alloca ptr, align 8
  %5 = alloca %"struct.Atomic::PlatformLoad.15", align 1
  store ptr %0, ptr %3, align 8
  store ptr %1, ptr %4, align 8
  %6 = load ptr, ptr %4, align 8
  %7 = call noundef i32 @_ZNK6Atomic12PlatformLoadILm4EEclIjEET_PVKS3_(ptr noundef nonnull align 1 dereferenceable(1) %5, ptr noundef %6)
  ret i32 %7
}

; Function Attrs: mustprogress nounwind uwtable
define linkonce_odr hidden void @_ZNK31G1ConcurrentRefineThreadControl50assert_current_thread_is_primary_refinement_threadEv(ptr noundef nonnull align 8 dereferenceable(24) %0) #1 comdat align 2 {
  %2 = alloca ptr, align 8
  store ptr %0, ptr %2, align 8
  ret void
}

; Function Attrs: mustprogress nounwind uwtable
define linkonce_odr hidden noundef i32 @_Z4MAX2IjET_S0_S0_(i32 noundef %0, i32 noundef %1) #1 comdat {
  %3 = alloca i32, align 4
  %4 = alloca i32, align 4
  store i32 %0, ptr %3, align 4
  store i32 %1, ptr %4, align 4
  %5 = load i32, ptr %3, align 4
  %6 = load i32, ptr %4, align 4
  %7 = icmp ugt i32 %5, %6
  br i1 %7, label %8, label %10

8:                                                ; preds = %2
  %9 = load i32, ptr %3, align 4
  br label %12

10:                                               ; preds = %2
  %11 = load i32, ptr %4, align 4
  br label %12

12:                                               ; preds = %10, %8
  %13 = phi i32 [ %9, %8 ], [ %11, %10 ]
  ret i32 %13
}

; Function Attrs: mustprogress nounwind uwtable
define linkonce_odr hidden noundef double @_ZNK31G1ConcurrentRefineThreadsNeeded31predicted_time_until_next_gc_msEv(ptr noundef nonnull align 8 dereferenceable(36) %0) #1 comdat align 2 {
  %2 = alloca ptr, align 8
  store ptr %0, ptr %2, align 8
  %3 = load ptr, ptr %2, align 8
  %4 = getelementptr inbounds %class.G1ConcurrentRefineThreadsNeeded, ptr %3, i32 0, i32 2
  %5 = load double, ptr %4, align 8
  ret double %5
}

; Function Attrs: mustprogress nounwind uwtable
define linkonce_odr hidden noundef i64 @_ZNK31G1ConcurrentRefineThreadsNeeded26predicted_cards_at_next_gcEv(ptr noundef nonnull align 8 dereferenceable(36) %0) #1 comdat align 2 {
  %2 = alloca ptr, align 8
  store ptr %0, ptr %2, align 8
  %3 = load ptr, ptr %2, align 8
  %4 = getelementptr inbounds %class.G1ConcurrentRefineThreadsNeeded, ptr %3, i32 0, i32 3
  %5 = load i64, ptr %4, align 8
  ret i64 %5
}

; Function Attrs: mustprogress nounwind uwtable
define linkonce_odr hidden noundef zeroext i1 @_ZN7LogImplILN6LogTag4typeE49ELS1_127ELS1_0ELS1_0ELS1_0ELS1_0EE8is_levelEN8LogLevel4typeE(i32 noundef %0) #1 comdat align 2 {
  %2 = alloca i32, align 4
  store i32 %0, ptr %2, align 4
  %3 = call noundef nonnull align 8 dereferenceable(112) ptr @_ZN16LogTagSetMappingILN6LogTag4typeE49ELS1_127ELS1_0ELS1_0ELS1_0ELS1_0EE6tagsetEv()
  %4 = load i32, ptr %2, align 4
  %5 = call noundef zeroext i1 @_ZNK9LogTagSet8is_levelEN8LogLevel4typeE(ptr noundef nonnull align 8 dereferenceable(112) %3, i32 noundef %4)
  ret i1 %5
}

; Function Attrs: mustprogress nounwind uwtable
define linkonce_odr hidden void @_ZN6Atomic5storeIjjEEvPVT_T0_(ptr noundef %0, i32 noundef %1) #1 comdat align 2 {
  %3 = alloca ptr, align 8
  %4 = alloca i32, align 4
  %5 = alloca %"struct.Atomic::StoreImpl", align 1
  store ptr %0, ptr %3, align 8
  store i32 %1, ptr %4, align 4
  %6 = load ptr, ptr %3, align 8
  %7 = load i32, ptr %4, align 4
  call void @_ZNK6Atomic9StoreImplIjjNS_13PlatformStoreILm4EEEvEclEPVjj(ptr noundef nonnull align 1 dereferenceable(1) %5, ptr noundef %6, i32 noundef %7)
  ret void
}

; Function Attrs: mustprogress nounwind uwtable
define hidden noundef zeroext i1 @_ZNK18G1ConcurrentRefine28is_in_last_adjustment_periodEv(ptr noundef nonnull align 8 dereferenceable(136) %0) #1 align 2 {
  %2 = alloca ptr, align 8
  store ptr %0, ptr %2, align 8
  %3 = load ptr, ptr %2, align 8
  %4 = getelementptr inbounds %class.G1ConcurrentRefine, ptr %3, i32 0, i32 7
  %5 = call noundef double @_ZNK31G1ConcurrentRefineThreadsNeeded31predicted_time_until_next_gc_msEv(ptr noundef nonnull align 8 dereferenceable(36) %4)
  %6 = call noundef i64 @_ZNK18G1ConcurrentRefine24adjust_threads_period_msEv(ptr noundef nonnull align 8 dereferenceable(136) %3)
  %7 = uitofp i64 %6 to double
  %8 = fcmp ole double %5, %7
  ret i1 %8
}

; Function Attrs: mustprogress nounwind uwtable
define linkonce_odr hidden noundef i32 @_ZNK31G1ConcurrentRefineThreadControl15max_num_threadsEv(ptr noundef nonnull align 8 dereferenceable(24) %0) #1 comdat align 2 {
  %2 = alloca ptr, align 8
  store ptr %0, ptr %2, align 8
  %3 = load ptr, ptr %2, align 8
  %4 = getelementptr inbounds %class.G1ConcurrentRefineThreadControl, ptr %3, i32 0, i32 1
  %5 = call noundef i32 @_ZNK17GrowableArrayBase8capacityEv(ptr noundef nonnull align 4 dereferenceable(8) %4)
  ret i32 %5
}

; Function Attrs: mustprogress nounwind uwtable
define linkonce_odr hidden noundef i32 @_ZNK31G1ConcurrentRefineThreadsNeeded14threads_neededEv(ptr noundef nonnull align 8 dereferenceable(36) %0) #1 comdat align 2 {
  %2 = alloca ptr, align 8
  store ptr %0, ptr %2, align 8
  %3 = load ptr, ptr %2, align 8
  %4 = getelementptr inbounds %class.G1ConcurrentRefineThreadsNeeded, ptr %3, i32 0, i32 4
  %5 = load i32, ptr %4, align 8
  ret i32 %5
}

; Function Attrs: mustprogress nounwind uwtable
define linkonce_odr hidden noundef i32 @_ZN6Atomic4loadIjEET_PVKS1_(ptr noundef %0) #1 comdat align 2 {
  %2 = alloca ptr, align 8
  %3 = alloca %"struct.Atomic::LoadImpl.14", align 1
  store ptr %0, ptr %2, align 8
  %4 = load ptr, ptr %2, align 8
  %5 = call noundef i32 @_ZNK6Atomic8LoadImplIjNS_12PlatformLoadILm4EEEvEclEPVKj(ptr noundef nonnull align 1 dereferenceable(1) %3, ptr noundef %4)
  ret i32 %5
}

; Function Attrs: mustprogress nounwind uwtable
define linkonce_odr hidden void @_ZNK18G1ConcurrentRefine50assert_current_thread_is_primary_refinement_threadEv(ptr noundef nonnull align 8 dereferenceable(136) %0) #1 comdat align 2 {
  %2 = alloca ptr, align 8
  store ptr %0, ptr %2, align 8
  %3 = load ptr, ptr %2, align 8
  %4 = getelementptr inbounds %class.G1ConcurrentRefine, ptr %3, i32 0, i32 8
  call void @_ZNK31G1ConcurrentRefineThreadControl50assert_current_thread_is_primary_refinement_threadEv(ptr noundef nonnull align 8 dereferenceable(24) %4)
  ret void
}

; Function Attrs: mustprogress nounwind uwtable
define hidden void @_ZN18G1ConcurrentRefine21adjust_threads_wantedEm(ptr noundef nonnull align 8 dereferenceable(136) %0, i64 noundef %1) #1 align 2 {
  %3 = alloca ptr, align 8
  %4 = alloca i64, align 8
  %5 = alloca i64, align 8
  %6 = alloca i64, align 8
  %7 = alloca i32, align 4
  %8 = alloca i32, align 4
  %9 = alloca i32, align 4
  store ptr %0, ptr %3, align 8
  store i64 %1, ptr %4, align 8
  %10 = load ptr, ptr %3, align 8
  call void @_ZNK18G1ConcurrentRefine50assert_current_thread_is_primary_refinement_threadEv(ptr noundef nonnull align 8 dereferenceable(136) %10)
  %11 = getelementptr inbounds %class.G1ConcurrentRefine, ptr %10, i32 0, i32 9
  %12 = load ptr, ptr %11, align 8
  %13 = call noundef i64 @_ZNK19G1DirtyCardQueueSet9num_cardsEv(ptr noundef nonnull align 8 dereferenceable(928) %12)
  store i64 %13, ptr %5, align 8
  store i64 -1, ptr %6, align 8
  %14 = getelementptr inbounds %class.G1ConcurrentRefine, ptr %10, i32 0, i32 1
  %15 = call noundef i32 @_ZN6Atomic4loadIjEET_PVKS1_(ptr noundef %14)
  store i32 %15, ptr %7, align 4
  %16 = getelementptr inbounds %class.G1ConcurrentRefine, ptr %10, i32 0, i32 7
  %17 = load i32, ptr %7, align 4
  %18 = load i64, ptr %4, align 8
  %19 = load i64, ptr %5, align 8
  %20 = getelementptr inbounds %class.G1ConcurrentRefine, ptr %10, i32 0, i32 2
  %21 = load i64, ptr %20, align 8
  call void @_ZN31G1ConcurrentRefineThreadsNeeded6updateEjmmm(ptr noundef nonnull align 8 dereferenceable(36) %16, i32 noundef %17, i64 noundef %18, i64 noundef %19, i64 noundef %21)
  %22 = getelementptr inbounds %class.G1ConcurrentRefine, ptr %10, i32 0, i32 7
  %23 = call noundef i32 @_ZNK31G1ConcurrentRefineThreadsNeeded14threads_neededEv(ptr noundef nonnull align 8 dereferenceable(36) %22)
  store i32 %23, ptr %8, align 4
  %24 = load i32, ptr %8, align 4
  %25 = getelementptr inbounds %class.G1ConcurrentRefine, ptr %10, i32 0, i32 8
  %26 = call noundef i32 @_ZNK31G1ConcurrentRefineThreadControl15max_num_threadsEv(ptr noundef nonnull align 8 dereferenceable(24) %25)
  %27 = icmp ugt i32 %24, %26
  br i1 %27, label %28, label %33

28:                                               ; preds = %2
  %29 = getelementptr inbounds %class.G1ConcurrentRefine, ptr %10, i32 0, i32 2
  %30 = load i64, ptr %29, align 8
  store i64 %30, ptr %6, align 8
  %31 = getelementptr inbounds %class.G1ConcurrentRefine, ptr %10, i32 0, i32 8
  %32 = call noundef i32 @_ZNK31G1ConcurrentRefineThreadControl15max_num_threadsEv(ptr noundef nonnull align 8 dereferenceable(24) %31)
  store i32 %32, ptr %8, align 4
  br label %39

33:                                               ; preds = %2
  %34 = call noundef zeroext i1 @_ZNK18G1ConcurrentRefine28is_in_last_adjustment_periodEv(ptr noundef nonnull align 8 dereferenceable(136) %10)
  br i1 %34, label %35, label %38

35:                                               ; preds = %33
  %36 = getelementptr inbounds %class.G1ConcurrentRefine, ptr %10, i32 0, i32 2
  %37 = load i64, ptr %36, align 8
  store i64 %37, ptr %6, align 8
  br label %38

38:                                               ; preds = %35, %33
  br label %39

39:                                               ; preds = %38, %28
  %40 = getelementptr inbounds %class.G1ConcurrentRefine, ptr %10, i32 0, i32 1
  %41 = load i32, ptr %8, align 4
  call void @_ZN6Atomic5storeIjjEEvPVT_T0_(ptr noundef %40, i32 noundef %41)
  %42 = getelementptr inbounds %class.G1ConcurrentRefine, ptr %10, i32 0, i32 9
  %43 = load ptr, ptr %42, align 8
  %44 = load i64, ptr %6, align 8
  call void @_ZN19G1DirtyCardQueueSet32set_mutator_refinement_thresholdEm(ptr noundef nonnull align 8 dereferenceable(928) %43, i64 noundef %44)
  %45 = call noundef zeroext i1 @_ZN7LogImplILN6LogTag4typeE49ELS1_127ELS1_0ELS1_0ELS1_0ELS1_0EE8is_levelEN8LogLevel4typeE(i32 noundef 2)
  br i1 %45, label %47, label %46

46:                                               ; preds = %39
  br label %54

47:                                               ; preds = %39
  %48 = load i32, ptr %8, align 4
  %49 = load i64, ptr %5, align 8
  %50 = getelementptr inbounds %class.G1ConcurrentRefine, ptr %10, i32 0, i32 7
  %51 = call noundef i64 @_ZNK31G1ConcurrentRefineThreadsNeeded26predicted_cards_at_next_gcEv(ptr noundef nonnull align 8 dereferenceable(36) %50)
  %52 = getelementptr inbounds %class.G1ConcurrentRefine, ptr %10, i32 0, i32 7
  %53 = call noundef double @_ZNK31G1ConcurrentRefineThreadsNeeded31predicted_time_until_next_gc_msEv(ptr noundef nonnull align 8 dereferenceable(36) %52)
  call void (ptr, ...) @_ZN7LogImplILN6LogTag4typeE49ELS1_127ELS1_0ELS1_0ELS1_0ELS1_0EE5writeILN8LogLevel4typeE2EEEvPKcz(ptr noundef @.str.10, i32 noundef %48, i64 noundef %49, i64 noundef %51, double noundef %53)
  br label %54

54:                                               ; preds = %47, %46
  %55 = load i32, ptr %7, align 4
  %56 = call noundef i32 @_Z4MAX2IjET_S0_S0_(i32 noundef %55, i32 noundef 1)
  store i32 %56, ptr %9, align 4
  br label %57

57:                                               ; preds = %73, %54
  %58 = load i32, ptr %9, align 4
  %59 = load i32, ptr %8, align 4
  %60 = icmp ult i32 %58, %59
  br i1 %60, label %61, label %76

61:                                               ; preds = %57
  %62 = getelementptr inbounds %class.G1ConcurrentRefine, ptr %10, i32 0, i32 8
  %63 = load i32, ptr %9, align 4
  %64 = call noundef zeroext i1 @_ZN31G1ConcurrentRefineThreadControl8activateEj(ptr noundef nonnull align 8 dereferenceable(24) %62, i32 noundef %63)
  br i1 %64, label %72, label %65

65:                                               ; preds = %61
  %66 = getelementptr inbounds %class.G1ConcurrentRefine, ptr %10, i32 0, i32 1
  %67 = load i32, ptr %9, align 4
  call void @_ZN6Atomic5storeIjjEEvPVT_T0_(ptr noundef %66, i32 noundef %67)
  %68 = getelementptr inbounds %class.G1ConcurrentRefine, ptr %10, i32 0, i32 9
  %69 = load ptr, ptr %68, align 8
  %70 = getelementptr inbounds %class.G1ConcurrentRefine, ptr %10, i32 0, i32 2
  %71 = load i64, ptr %70, align 8
  call void @_ZN19G1DirtyCardQueueSet32set_mutator_refinement_thresholdEm(ptr noundef nonnull align 8 dereferenceable(928) %69, i64 noundef %71)
  br label %76

72:                                               ; preds = %61
  br label %73

73:                                               ; preds = %72
  %74 = load i32, ptr %9, align 4
  %75 = add i32 %74, 1
  store i32 %75, ptr %9, align 4
  br label %57, !llvm.loop !9

76:                                               ; preds = %65, %57
  ret void
}