; Function Attrs: mustprogress nounwind uwtable
define hidden void @_ZN18G1ConcurrentRefine21adjust_threads_wantedEm(ptr noundef nonnull align 8 dereferenceable(136) %0, i64 noundef %1) local_unnamed_addr #0 align 2 {
  %3 = getelementptr inbounds i8, ptr %0, i64 128
  %4 = load ptr, ptr %3, align 8
  %5 = tail call noundef i64 @_ZNK19G1DirtyCardQueueSet9num_cardsEv(ptr noundef nonnull align 8 dereferenceable(928) %4) #17
  %6 = getelementptr inbounds i8, ptr %0, i64 8
  %7 = load volatile i32, ptr %6, align 8
  %8 = getelementptr inbounds i8, ptr %0, i64 64
  %9 = getelementptr inbounds i8, ptr %0, i64 16
  %10 = load i64, ptr %9, align 8
  tail call void @_ZN31G1ConcurrentRefineThreadsNeeded6updateEjmmm(ptr noundef nonnull align 8 dereferenceable(36) %8, i32 noundef %7, i64 noundef %1, i64 noundef %5, i64 noundef %10) #17
  %11 = getelementptr inbounds i8, ptr %0, i64 96
  %12 = load i32, ptr %11, align 8
  %13 = getelementptr inbounds i8, ptr %0, i64 104
  %14 = getelementptr inbounds i8, ptr %0, i64 116
  %15 = load i32, ptr %14, align 4
  %16 = icmp ugt i32 %12, %15
  br i1 %16, label %17, label %19

17:                                               ; preds = %2
  %18 = load i64, ptr %9, align 8
  br label %24

19:                                               ; preds = %2
  %20 = getelementptr inbounds i8, ptr %0, i64 80
  %21 = load double, ptr %20, align 8
  %22 = fcmp ole double %21, 5.000000e+01
  %23 = load i64, ptr %9, align 8
  %spec.select = select i1 %22, i64 %23, i64 -1
  br label %24

24:                                               ; preds = %19, %17
  %.015 = phi i64 [ %18, %17 ], [ %spec.select, %19 ]
  %.014 = phi i32 [ %15, %17 ], [ %12, %19 ]
  store volatile i32 %.014, ptr %6, align 8
  %25 = load ptr, ptr %3, align 8
  tail call void @_ZN19G1DirtyCardQueueSet32set_mutator_refinement_thresholdEm(ptr noundef nonnull align 8 dereferenceable(928) %25, i64 noundef %.015) #17
  %26 = load volatile ptr, ptr getelementptr inbounds (i8, ptr @_ZN16LogTagSetMappingILN6LogTag4typeE49ELS1_127ELS1_0ELS1_0ELS1_0ELS1_0EE7_tagsetE, i64 56), align 8
  %.not = icmp eq ptr %26, null
  br i1 %.not, label %32, label %27

27:                                               ; preds = %24
  %28 = getelementptr inbounds i8, ptr %0, i64 88
  %29 = load i64, ptr %28, align 8
  %30 = getelementptr inbounds i8, ptr %0, i64 80
  %31 = load double, ptr %30, align 8
  tail call void (ptr, ...) @_ZN7LogImplILN6LogTag4typeE49ELS1_127ELS1_0ELS1_0ELS1_0ELS1_0EE5writeILN8LogLevel4typeE2EEEvPKcz(ptr noundef nonnull @.str.10, i32 noundef %.014, i64 noundef %5, i64 noundef %29, double noundef %31)
  br label %32

32:                                               ; preds = %24, %27
  %33 = tail call noundef i32 @llvm.umax.i32(i32 %7, i32 1)
  %34 = icmp ult i32 %33, %.014
  br i1 %34, label %.lr.ph, label %.loopexit

.lr.ph:                                           ; preds = %32, %39
  %.018 = phi i32 [ %40, %39 ], [ %33, %32 ]
  %35 = tail call noundef zeroext i1 @_ZN31G1ConcurrentRefineThreadControl8activateEj(ptr noundef nonnull align 8 dereferenceable(24) %13, i32 noundef %.018)
  br i1 %35, label %39, label %36

36:                                               ; preds = %.lr.ph
  store volatile i32 %.018, ptr %6, align 8
  %37 = load ptr, ptr %3, align 8
  %38 = load i64, ptr %9, align 8
  tail call void @_ZN19G1DirtyCardQueueSet32set_mutator_refinement_thresholdEm(ptr noundef nonnull align 8 dereferenceable(928) %37, i64 noundef %38) #17
  br label %.loopexit

39:                                               ; preds = %.lr.ph
  %40 = add i32 %.018, 1
  %exitcond.not = icmp eq i32 %40, %.014
  br i1 %exitcond.not, label %.loopexit, label %.lr.ph, !llvm.loop !9

.loopexit:                                        ; preds = %39, %32, %36
  ret void
}